; Function Attrs: mustprogress uwtable
define void @_ZN5arrow8internal10ThreadPool11WaitForIdleEv(ptr noundef nonnull readonly align 8 captures(none) dereferenceable(33) %0) local_unnamed_addr #3 align 2 personality ptr @__gxx_personality_v0 {
  %2 = alloca %"class.std::unique_lock", align 8
  call void @llvm.lifetime.start.p0(i64 16, ptr nonnull %2) #33
  %3 = getelementptr inbounds nuw i8, ptr %0, i64 24
  %4 = load ptr, ptr %3, align 8, !tbaa !112
  store ptr %4, ptr %2, align 8, !tbaa !94
  %5 = getelementptr inbounds nuw i8, ptr %2, i64 8
  %6 = tail call noundef i32 @pthread_mutex_lock(ptr noundef nonnull align 8 dereferenceable(40) %4) #33
  %.not.i.i.i = icmp eq i32 %6, 0
  br i1 %.not.i.i.i, label %_ZNSt11unique_lockISt5mutexEC2ERS0_.exit, label %7

7:                                                ; preds = %1
  tail call void @_ZSt20__throw_system_errori(i32 noundef %6) #34
  unreachable

_ZNSt11unique_lockISt5mutexEC2ERS0_.exit:         ; preds = %1
  store i8 1, ptr %5, align 8, !tbaa !97
  %8 = load ptr, ptr %3, align 8, !tbaa !112
  %9 = getelementptr inbounds nuw i8, ptr %8, i64 136
  %10 = getelementptr i8, ptr %8, i64 276
  %.val.val.val3.i = load i32, ptr %10, align 4, !tbaa !118
  %11 = icmp eq i32 %.val.val.val3.i, 0
  br i1 %11, label %"_ZNSt18condition_variable4waitIZN5arrow8internal10ThreadPool11WaitForIdleEvE3$_0EEvRSt11unique_lockISt5mutexET_.exit.thread", label %.lr.ph.i

.lr.ph.i:                                         ; preds = %_ZNSt11unique_lockISt5mutexEC2ERS0_.exit, %.noexc
  invoke void @_ZNSt18condition_variable4waitERSt11unique_lockISt5mutexE(ptr noundef nonnull align 8 dereferenceable(48) %9, ptr noundef nonnull align 8 dereferenceable(9) %2)
          to label %.noexc unwind label %18

.noexc:                                           ; preds = %.lr.ph.i
  %.val.val.i = load ptr, ptr %3, align 8, !tbaa !112
  %12 = getelementptr i8, ptr %.val.val.i, i64 276
  %.val.val.val.i = load i32, ptr %12, align 4, !tbaa !118
  %13 = icmp eq i32 %.val.val.val.i, 0
  br i1 %13, label %"_ZNSt18condition_variable4waitIZN5arrow8internal10ThreadPool11WaitForIdleEvE3$_0EEvRSt11unique_lockISt5mutexET_.exit", label %.lr.ph.i, !llvm.loop !139

"_ZNSt18condition_variable4waitIZN5arrow8internal10ThreadPool11WaitForIdleEvE3$_0EEvRSt11unique_lockISt5mutexET_.exit": ; preds = %.noexc
  %.pre = load i8, ptr %5, align 8, !tbaa !97, !range !46
  %14 = trunc nuw i8 %.pre to i1
  br i1 %14, label %"_ZNSt18condition_variable4waitIZN5arrow8internal10ThreadPool11WaitForIdleEvE3$_0EEvRSt11unique_lockISt5mutexET_.exit.thread", label %_ZNSt11unique_lockISt5mutexED2Ev.exit

"_ZNSt18condition_variable4waitIZN5arrow8internal10ThreadPool11WaitForIdleEvE3$_0EEvRSt11unique_lockISt5mutexET_.exit.thread": ; preds = %_ZNSt11unique_lockISt5mutexEC2ERS0_.exit, %"_ZNSt18condition_variable4waitIZN5arrow8internal10ThreadPool11WaitForIdleEvE3$_0EEvRSt11unique_lockISt5mutexET_.exit"
  %15 = load ptr, ptr %2, align 8, !tbaa !94
  %.not.i.i = icmp eq ptr %15, null
  br i1 %.not.i.i, label %_ZNSt11unique_lockISt5mutexED2Ev.exit, label %16

16:                                               ; preds = %"_ZNSt18condition_variable4waitIZN5arrow8internal10ThreadPool11WaitForIdleEvE3$_0EEvRSt11unique_lockISt5mutexET_.exit.thread"
  %17 = call noundef i32 @pthread_mutex_unlock(ptr noundef nonnull align 8 dereferenceable(40) %15) #33
  br label %_ZNSt11unique_lockISt5mutexED2Ev.exit

_ZNSt11unique_lockISt5mutexED2Ev.exit:            ; preds = %"_ZNSt18condition_variable4waitIZN5arrow8internal10ThreadPool11WaitForIdleEvE3$_0EEvRSt11unique_lockISt5mutexET_.exit", %"_ZNSt18condition_variable4waitIZN5arrow8internal10ThreadPool11WaitForIdleEvE3$_0EEvRSt11unique_lockISt5mutexET_.exit.thread", %16
  call void @llvm.lifetime.end.p0(i64 16, ptr nonnull %2) #33
  ret void

18:                                               ; preds = %.lr.ph.i
  %19 = landingpad { ptr, i32 }
          cleanup
  %20 = load i8, ptr %5, align 8, !tbaa !97, !range !46, !noundef !47
  %21 = trunc nuw i8 %20 to i1
  br i1 %21, label %22, label %_ZNSt11unique_lockISt5mutexED2Ev.exit3

22:                                               ; preds = %18
  %23 = load ptr, ptr %2, align 8, !tbaa !94
  %.not.i.i2 = icmp eq ptr %23, null
  br i1 %.not.i.i2, label %_ZNSt11unique_lockISt5mutexED2Ev.exit3, label %24

24:                                               ; preds = %22
  %25 = call noundef i32 @pthread_mutex_unlock(ptr noundef nonnull align 8 dereferenceable(40) %23) #33
  br label %_ZNSt11unique_lockISt5mutexED2Ev.exit3

_ZNSt11unique_lockISt5mutexED2Ev.exit3:           ; preds = %18, %22, %24
  call void @llvm.lifetime.end.p0(i64 16, ptr nonnull %2) #33
  resume { ptr, i32 } %19
}